; ModuleID = '14/166.c'
source_filename = "14/166.c"
target datalayout = "e-m:e-p270:32:32-p271:32:32-p272:64:64-i64:64-f80:128-n8:16:32:64-S128"
target triple = "x86_64-pc-linux-gnu"

%struct.student = type { i32, i32, i32, i32 }

@.str = private unnamed_addr constant [3 x i8] c"%d\00", align 1
@.str.1 = private unnamed_addr constant [7 x i8] c"%d%d%d\00", align 1
@.str.2 = private unnamed_addr constant [7 x i8] c"%d %d\0A\00", align 1

; Function Attrs: noinline nounwind uwtable
define dso_local void @main() #0 {
  %1 = alloca i32, align 4
  %2 = alloca i32, align 4
  %3 = alloca i32, align 4
  %4 = alloca i32, align 4
  %5 = alloca %struct.student, align 4
  %6 = alloca %struct.student*, align 8
  %7 = call i32 (i8*, ...) @__isoc99_scanf(i8* getelementptr inbounds ([3 x i8], [3 x i8]* @.str, i64 0, i64 0), i32* %1)
  %8 = load i32, i32* %1, align 4
  %9 = sext i32 %8 to i64
  %10 = mul i64 %9, 16
  %11 = call noalias i8* @malloc(i64 %10) #3
  %12 = bitcast i8* %11 to %struct.student*
  store %struct.student* %12, %struct.student** %6, align 8
  store i32 0, i32* %2, align 4
  br label %13

13:                                               ; preds = %52, %0
  %14 = load i32, i32* %2, align 4
  %15 = load i32, i32* %1, align 4
  %16 = icmp slt i32 %14, %15
  br i1 %16, label %17, label %55

17:                                               ; preds = %13
  %18 = load %struct.student*, %struct.student** %6, align 8
  %19 = load i32, i32* %2, align 4
  %20 = sext i32 %19 to i64
  %21 = getelementptr inbounds %struct.student, %struct.student* %18, i64 %20
  %22 = getelementptr inbounds %struct.student, %struct.student* %21, i32 0, i32 0
  %23 = load %struct.student*, %struct.student** %6, align 8
  %24 = load i32, i32* %2, align 4
  %25 = sext i32 %24 to i64
  %26 = getelementptr inbounds %struct.student, %struct.student* %23, i64 %25
  %27 = getelementptr inbounds %struct.student, %struct.student* %26, i32 0, i32 1
  %28 = load %struct.student*, %struct.student** %6, align 8
  %29 = load i32, i32* %2, align 4
  %30 = sext i32 %29 to i64
  %31 = getelementptr inbounds %struct.student, %struct.student* %28, i64 %30
  %32 = getelementptr inbounds %struct.student, %struct.student* %31, i32 0, i32 2
  %33 = call i32 (i8*, ...) @__isoc99_scanf(i8* getelementptr inbounds ([7 x i8], [7 x i8]* @.str.1, i64 0, i64 0), i32* %22, i32* %27, i32* %32)
  %34 = load %struct.student*, %struct.student** %6, align 8
  %35 = load i32, i32* %2, align 4
  %36 = sext i32 %35 to i64
  %37 = getelementptr inbounds %struct.student, %struct.student* %34, i64 %36
  %38 = getelementptr inbounds %struct.student, %struct.student* %37, i32 0, i32 1
  %39 = load i32, i32* %38, align 4
  %40 = load %struct.student*, %struct.student** %6, align 8
  %41 = load i32, i32* %2, align 4
  %42 = sext i32 %41 to i64
  %43 = getelementptr inbounds %struct.student, %struct.student* %40, i64 %42
  %44 = getelementptr inbounds %struct.student, %struct.student* %43, i32 0, i32 2
  %45 = load i32, i32* %44, align 4
  %46 = add nsw i32 %39, %45
  %47 = load %struct.student*, %struct.student** %6, align 8
  %48 = load i32, i32* %2, align 4
  %49 = sext i32 %48 to i64
  %50 = getelementptr inbounds %struct.student, %struct.student* %47, i64 %49
  %51 = getelementptr inbounds %struct.student, %struct.student* %50, i32 0, i32 3
  store i32 %46, i32* %51, align 4
  br label %52

52:                                               ; preds = %17
  %53 = load i32, i32* %2, align 4
  %54 = add nsw i32 %53, 1
  store i32 %54, i32* %2, align 4
  br label %13

55:                                               ; preds = %13
  store i32 0, i32* %4, align 4
  store i32 0, i32* %2, align 4
  br label %56

56:                                               ; preds = %78, %55
  %57 = load i32, i32* %2, align 4
  %58 = load i32, i32* %1, align 4
  %59 = icmp slt i32 %57, %58
  br i1 %59, label %60, label %81

60:                                               ; preds = %56
  %61 = load i32, i32* %4, align 4
  %62 = load %struct.student*, %struct.student** %6, align 8
  %63 = load i32, i32* %2, align 4
  %64 = sext i32 %63 to i64
  %65 = getelementptr inbounds %struct.student, %struct.student* %62, i64 %64
  %66 = getelementptr inbounds %struct.student, %struct.student* %65, i32 0, i32 3
  %67 = load i32, i32* %66, align 4
  %68 = icmp slt i32 %61, %67
  br i1 %68, label %69, label %77

69:                                               ; preds = %60
  %70 = load %struct.student*, %struct.student** %6, align 8
  %71 = load i32, i32* %2, align 4
  %72 = sext i32 %71 to i64
  %73 = getelementptr inbounds %struct.student, %struct.student* %70, i64 %72
  %74 = getelementptr inbounds %struct.student, %struct.student* %73, i32 0, i32 3
  %75 = load i32, i32* %74, align 4
  store i32 %75, i32* %4, align 4
  %76 = load i32, i32* %2, align 4
  store i32 %76, i32* %3, align 4
  br label %77

77:                                               ; preds = %69, %60
  br label %78

78:                                               ; preds = %77
  %79 = load i32, i32* %2, align 4
  %80 = add nsw i32 %79, 1
  store i32 %80, i32* %2, align 4
  br label %56

81:                                               ; preds = %56
  %82 = load %struct.student*, %struct.student** %6, align 8
  %83 = load i32, i32* %3, align 4
  %84 = sext i32 %83 to i64
  %85 = getelementptr inbounds %struct.student, %struct.student* %82, i64 %84
  %86 = getelementptr inbounds %struct.student, %struct.student* %85, i32 0, i32 0
  %87 = load i32, i32* %86, align 4
  %88 = load %struct.student*, %struct.student** %6, align 8
  %89 = load i32, i32* %3, align 4
  %90 = sext i32 %89 to i64
  %91 = getelementptr inbounds %struct.student, %struct.student* %88, i64 %90
  %92 = getelementptr inbounds %struct.student, %struct.student* %91, i32 0, i32 3
  %93 = load i32, i32* %92, align 4
  %94 = call i32 (i8*, ...) @printf(i8* getelementptr inbounds ([7 x i8], [7 x i8]* @.str.2, i64 0, i64 0), i32 %87, i32 %93)
  %95 = load %struct.student*, %struct.student** %6, align 8
  %96 = load i32, i32* %3, align 4
  %97 = sext i32 %96 to i64
  %98 = getelementptr inbounds %struct.student, %struct.student* %95, i64 %97
  %99 = getelementptr inbounds %struct.student, %struct.student* %98, i32 0, i32 3
  store i32 0, i32* %99, align 4
  store i32 0, i32* %4, align 4
  store i32 0, i32* %2, align 4
  br label %100

100:                                              ; preds = %122, %81
  %101 = load i32, i32* %2, align 4
  %102 = load i32, i32* %1, align 4
  %103 = icmp slt i32 %101, %102
  br i1 %103, label %104, label %125

104:                                              ; preds = %100
  %105 = load i32, i32* %4, align 4
  %106 = load %struct.student*, %struct.student** %6, align 8
  %107 = load i32, i32* %2, align 4
  %108 = sext i32 %107 to i64
  %109 = getelementptr inbounds %struct.student, %struct.student* %106, i64 %108
  %110 = getelementptr inbounds %struct.student, %struct.student* %109, i32 0, i32 3
  %111 = load i32, i32* %110, align 4
  %112 = icmp slt i32 %105, %111
  br i1 %112, label %113, label %121

113:                                              ; preds = %104
  %114 = load %struct.student*, %struct.student** %6, align 8
  %115 = load i32, i32* %2, align 4
  %116 = sext i32 %115 to i64
  %117 = getelementptr inbounds %struct.student, %struct.student* %114, i64 %116
  %118 = getelementptr inbounds %struct.student, %struct.student* %117, i32 0, i32 3
  %119 = load i32, i32* %118, align 4
  store i32 %119, i32* %4, align 4
  %120 = load i32, i32* %2, align 4
  store i32 %120, i32* %3, align 4
  br label %121

121:                                              ; preds = %113, %104
  br label %122

122:                                              ; preds = %121
  %123 = load i32, i32* %2, align 4
  %124 = add nsw i32 %123, 1
  store i32 %124, i32* %2, align 4
  br label %100

125:                                              ; preds = %100
  %126 = load %struct.student*, %struct.student** %6, align 8
  %127 = load i32, i32* %3, align 4
  %128 = sext i32 %127 to i64
  %129 = getelementptr inbounds %struct.student, %struct.student* %126, i64 %128
  %130 = getelementptr inbounds %struct.student, %struct.student* %129, i32 0, i32 0
  %131 = load i32, i32* %130, align 4
  %132 = load %struct.student*, %struct.student** %6, align 8
  %133 = load i32, i32* %3, align 4
  %134 = sext i32 %133 to i64
  %135 = getelementptr inbounds %struct.student, %struct.student* %132, i64 %134
  %136 = getelementptr inbounds %struct.student, %struct.student* %135, i32 0, i32 3
  %137 = load i32, i32* %136, align 4
  %138 = call i32 (i8*, ...) @printf(i8* getelementptr inbounds ([7 x i8], [7 x i8]* @.str.2, i64 0, i64 0), i32 %131, i32 %137)
  %139 = load %struct.student*, %struct.student** %6, align 8
  %140 = load i32, i32* %3, align 4
  %141 = sext i32 %140 to i64
  %142 = getelementptr inbounds %struct.student, %struct.student* %139, i64 %141
  %143 = getelementptr inbounds %struct.student, %struct.student* %142, i32 0, i32 3
  store i32 0, i32* %143, align 4
  store i32 0, i32* %4, align 4
  store i32 0, i32* %2, align 4
  br label %144

144:                                              ; preds = %166, %125
  %145 = load i32, i32* %2, align 4
  %146 = load i32, i32* %1, align 4
  %147 = icmp slt i32 %145, %146
  br i1 %147, label %148, label %169

148:                                              ; preds = %144
  %149 = load i32, i32* %4, align 4
  %150 = load %struct.student*, %struct.student** %6, align 8
  %151 = load i32, i32* %2, align 4
  %152 = sext i32 %151 to i64
  %153 = getelementptr inbounds %struct.student, %struct.student* %150, i64 %152
  %154 = getelementptr inbounds %struct.student, %struct.student* %153, i32 0, i32 3
  %155 = load i32, i32* %154, align 4
  %156 = icmp slt i32 %149, %155
  br i1 %156, label %157, label %165

157:                                              ; preds = %148
  %158 = load %struct.student*, %struct.student** %6, align 8
  %159 = load i32, i32* %2, align 4
  %160 = sext i32 %159 to i64
  %161 = getelementptr inbounds %struct.student, %struct.student* %158, i64 %160
  %162 = getelementptr inbounds %struct.student, %struct.student* %161, i32 0, i32 3
  %163 = load i32, i32* %162, align 4
  store i32 %163, i32* %4, align 4
  %164 = load i32, i32* %2, align 4
  store i32 %164, i32* %3, align 4
  br label %165

165:                                              ; preds = %157, %148
  br label %166

166:                                              ; preds = %165
  %167 = load i32, i32* %2, align 4
  %168 = add nsw i32 %167, 1
  store i32 %168, i32* %2, align 4
  br label %144

169:                                              ; preds = %144
  %170 = load %struct.student*, %struct.student** %6, align 8
  %171 = load i32, i32* %3, align 4
  %172 = sext i32 %171 to i64
  %173 = getelementptr inbounds %struct.student, %struct.student* %170, i64 %172
  %174 = getelementptr inbounds %struct.student, %struct.student* %173, i32 0, i32 0
  %175 = load i32, i32* %174, align 4
  %176 = load %struct.student*, %struct.student** %6, align 8
  %177 = load i32, i32* %3, align 4
  %178 = sext i32 %177 to i64
  %179 = getelementptr inbounds %struct.student, %struct.student* %176, i64 %178
  %180 = getelementptr inbounds %struct.student, %struct.student* %179, i32 0, i32 3
  %181 = load i32, i32* %180, align 4
  %182 = call i32 (i8*, ...) @printf(i8* getelementptr inbounds ([7 x i8], [7 x i8]* @.str.2, i64 0, i64 0), i32 %175, i32 %181)
  %183 = load %struct.student*, %struct.student** %6, align 8
  %184 = load i32, i32* %3, align 4
  %185 = sext i32 %184 to i64
  %186 = getelementptr inbounds %struct.student, %struct.student* %183, i64 %185
  %187 = getelementptr inbounds %struct.student, %struct.student* %186, i32 0, i32 3
  store i32 0, i32* %187, align 4
  ret void
}

declare dso_local i32 @__isoc99_scanf(i8*, ...) #1

; Function Attrs: nounwind
declare dso_local noalias i8* @malloc(i64) #2

declare dso_local i32 @printf(i8*, ...) #1


!llvm.module.flags = !{!0}
!llvm.ident = !{!1}

!0 = !{i32 1, !"wchar_size", i32 4}
!1 = !{!"clang version 10.0.0-4ubuntu1 "}
